; Function Attrs: inlinehint mustprogress nofree norecurse nosync nounwind willreturn memory(read, argmem: readwrite, inaccessiblemem: none) uwtable
define internal fastcc i32 @get_bits_long(ptr noundef captures(none) %0, i32 noundef range(i32 1, -2147483648) %1) unnamed_addr #8 {
  %3 = icmp samesign ult i32 %1, 26
  %4 = getelementptr inbounds nuw i8, ptr %0, i64 16
  %5 = load i32, ptr %4, align 8, !tbaa !115
  %6 = getelementptr inbounds nuw i8, ptr %0, i64 24
  %7 = load i32, ptr %6, align 8, !tbaa !113
  %8 = load ptr, ptr %0, align 8, !tbaa !111
  %9 = lshr i32 %5, 3
  %10 = zext nneg i32 %9 to i64
  %11 = getelementptr inbounds nuw i8, ptr %8, i64 %10
  %12 = load i32, ptr %11, align 1, !tbaa !92
  %13 = tail call i32 @llvm.bswap.i32(i32 %12)
  %14 = and i32 %5, 7
  %15 = shl i32 %13, %14
  br i1 %3, label %16, label %21

16:                                               ; preds = %2
  %17 = sub nuw nsw i32 32, %1
  %18 = lshr i32 %15, %17
  %19 = add i32 %5, %1
  %20 = tail call i32 @llvm.umin.i32(i32 %7, i32 %19)
  store i32 %20, ptr %4, align 8, !tbaa !115
  br label %39

21:                                               ; preds = %2
  %22 = lshr i32 %15, 16
  %23 = add i32 %5, 16
  %24 = tail call i32 @llvm.umin.i32(i32 %7, i32 %23)
  store i32 %24, ptr %4, align 8, !tbaa !115
  %25 = add nsw i32 %1, -16
  %26 = shl i32 %22, %25
  %27 = lshr i32 %24, 3
  %28 = zext nneg i32 %27 to i64
  %29 = getelementptr inbounds nuw i8, ptr %8, i64 %28
  %30 = load i32, ptr %29, align 1, !tbaa !92
  %31 = tail call i32 @llvm.bswap.i32(i32 %30)
  %32 = and i32 %24, 7
  %33 = shl i32 %31, %32
  %34 = sub nsw i32 48, %1
  %35 = lshr i32 %33, %34
  %36 = add i32 %24, %25
  %37 = tail call i32 @llvm.umin.i32(i32 %7, i32 %36)
  store i32 %37, ptr %4, align 8, !tbaa !115
  %38 = or i32 %35, %26
  br label %39

39:                                               ; preds = %21, %16
  %.0 = phi i32 [ %18, %16 ], [ %38, %21 ]
  ret i32 %.0
}